target datalayout = "e-m:e-p270:32:32-p271:32:32-p272:64:64-i64:64-i128:128-f80:128-n8:16:32:64-S128"
target triple = "x86_64-pc-linux-gnu"

%struct.PROC_HDR = type { ptr, ptr, ptr, ptr, i32, %struct.dlist_head, %struct.dlist_head, %struct.dlist_head, %struct.dlist_head, %struct.pg_atomic_uint32, %struct.pg_atomic_uint32, i32, i32, i32, i32 }
%struct.dlist_head = type { %struct.dlist_node }
%struct.dlist_node = type { ptr, ptr }
%struct.pg_atomic_uint32 = type { i32 }
%struct.PGPROC = type { %struct.dlist_node, ptr, ptr, i32, %struct.Latch, i32, i32, i32, i32, %struct.anon, i32, i32, i32, i8, i8, i8, i8, %struct.proclist_node, %struct.proclist_node, ptr, ptr, i32, i32, %struct.pg_atomic_uint64, i32, i8, i64, i32, %struct.dlist_node, [16 x %struct.dlist_head], %struct.XidCacheStatus, %struct.XidCache, i8, %struct.pg_atomic_uint32, i32, i32, i8, %struct.pg_atomic_uint32, i32, i32, i64, i64, %struct.LWLock, ptr, ptr, i8, i32, ptr, %struct.dlist_head, %struct.dlist_node }
%struct.Latch = type { i32, i32, i8, i32 }
%struct.anon = type { i32, i32 }
%struct.proclist_node = type { i32, i32 }
%struct.pg_atomic_uint64 = type { i64 }
%struct.XidCacheStatus = type { i8, i8 }
%struct.XidCache = type { [64 x i32] }
%struct.LWLock = type { i16, %struct.pg_atomic_uint32, %struct.proclist_head }
%struct.proclist_head = type { i32, i32 }

@ProcGlobal = dso_local global ptr null, align 8
@.str.2 = private unnamed_addr constant [7 x i8] c"proc.c\00", align 1
@.str.20 = private unnamed_addr constant [24 x i8] c"procNumber out of range\00", align 1
@__func__.ProcSendSignal = private unnamed_addr constant [15 x i8] c"ProcSendSignal\00", align 1

; Function Attrs: nounwind uwtable
define dso_local void @ProcSendSignal(i32 noundef %0) #0 {
  %2 = alloca i32, align 4
  store i32 %0, ptr %2, align 4
  %3 = load i32, ptr %2, align 4
  %4 = icmp slt i32 %3, 0
  br i1 %4, label %11, label %5

5:                                                ; preds = %1
  %6 = load i32, ptr %2, align 4
  %7 = load ptr, ptr @ProcGlobal, align 8
  %8 = getelementptr inbounds nuw %struct.PROC_HDR, ptr %7, i32 0, i32 4
  %9 = load i32, ptr %8, align 8
  %10 = icmp uge i32 %6, %9
  br i1 %10, label %11, label %21

11:                                               ; preds = %5, %1
  br label %12

12:                                               ; preds = %11
  br i1 true, label %13, label %15

13:                                               ; preds = %12
  %14 = call zeroext i1 @errstart_cold(i32 noundef 21, ptr noundef null) #11
  br i1 %14, label %17, label %19

15:                                               ; preds = %12
  %16 = call zeroext i1 @errstart(i32 noundef 21, ptr noundef null)
  br i1 %16, label %17, label %19

17:                                               ; preds = %15, %13
  %18 = call i32 (ptr, ...) @errmsg_internal(ptr noundef @.str.20)
  call void @errfinish(ptr noundef @.str.2, i32 noundef 1911, ptr noundef @__func__.ProcSendSignal)
  br label %19

19:                                               ; preds = %17, %15, %13
  unreachable

20:                                               ; No predecessors!
  br label %21

21:                                               ; preds = %20, %5
  %22 = load ptr, ptr @ProcGlobal, align 8
  %23 = getelementptr inbounds nuw %struct.PROC_HDR, ptr %22, i32 0, i32 0
  %24 = load ptr, ptr %23, align 8
  %25 = load i32, ptr %2, align 4
  %26 = sext i32 %25 to i64
  %27 = getelementptr inbounds %struct.PGPROC, ptr %24, i64 %26
  %28 = getelementptr inbounds nuw %struct.PGPROC, ptr %27, i32 0, i32 4
  call void @SetLatch(ptr noundef %28)
  ret void
}