; Function Attrs: nounwind uwtable
define dso_local void @ProcSendSignal(i32 noundef %0) local_unnamed_addr #0 {
  %2 = icmp slt i32 %0, 0
  br i1 %2, label %7, label %3

3:                                                ; preds = %1
  %4 = load ptr, ptr @ProcGlobal, align 8
  %5 = getelementptr inbounds nuw i8, ptr %4, i64 32
  %6 = load i32, ptr %5, align 8
  %.not = icmp ult i32 %0, %6
  br i1 %.not, label %10, label %7

7:                                                ; preds = %3, %1
  %8 = tail call zeroext i1 @errstart_cold(i32 noundef 21, ptr noundef null) #15
  tail call void @llvm.assume(i1 %8)
  %9 = tail call i32 (ptr, ...) @errmsg_internal(ptr noundef nonnull @.str.20) #14
  tail call void @errfinish(ptr noundef nonnull @.str.2, i32 noundef 1911, ptr noundef nonnull @__func__.ProcSendSignal) #14
  unreachable

10:                                               ; preds = %3
  %11 = load ptr, ptr %4, align 8
  %12 = zext nneg i32 %0 to i64
  %13 = getelementptr inbounds nuw %struct.PGPROC, ptr %11, i64 %12, i32 4
  tail call void @SetLatch(ptr noundef nonnull %13) #14
  ret void
}